target datalayout = "e-m:e-p270:32:32-p271:32:32-p272:64:64-i64:64-i128:128-f80:128-n8:16:32:64-S128"
target triple = "x86_64-pc-linux-gnu"

%struct.TParser = type { ptr, i32, ptr, ptr, i8, i32, ptr, i8, i8, i8, ptr, i32, i32, i32 }
%struct.TParserPosition = type { i32, i32, i32, i32, i32, i32, ptr, ptr }

; Function Attrs: nounwind uwtable
define internal i32 @p_isurlchar(ptr noundef %0) #0 {
  %2 = alloca i32, align 4
  %3 = alloca ptr, align 8
  %4 = alloca i8, align 1
  %5 = alloca i32, align 4
  store ptr %0, ptr %3, align 8
  call void @llvm.lifetime.start.p0(i64 1, ptr %4) #11
  %6 = load ptr, ptr %3, align 8
  %7 = getelementptr inbounds nuw %struct.TParser, ptr %6, i32 0, i32 6
  %8 = load ptr, ptr %7, align 8
  %9 = getelementptr inbounds nuw %struct.TParserPosition, ptr %8, i32 0, i32 2
  %10 = load i32, ptr %9, align 8
  %11 = icmp ne i32 %10, 1
  br i1 %11, label %12, label %13

12:                                               ; preds = %1
  store i32 0, ptr %2, align 4
  store i32 1, ptr %5, align 4
  br label %38

13:                                               ; preds = %1
  %14 = load ptr, ptr %3, align 8
  %15 = getelementptr inbounds nuw %struct.TParser, ptr %14, i32 0, i32 0
  %16 = load ptr, ptr %15, align 8
  %17 = load ptr, ptr %3, align 8
  %18 = getelementptr inbounds nuw %struct.TParser, ptr %17, i32 0, i32 6
  %19 = load ptr, ptr %18, align 8
  %20 = getelementptr inbounds nuw %struct.TParserPosition, ptr %19, i32 0, i32 0
  %21 = load i32, ptr %20, align 8
  %22 = sext i32 %21 to i64
  %23 = getelementptr inbounds i8, ptr %16, i64 %22
  %24 = load i8, ptr %23, align 1
  store i8 %24, ptr %4, align 1
  %25 = load i8, ptr %4, align 1
  %26 = sext i8 %25 to i32
  %27 = icmp sle i32 %26, 32
  br i1 %27, label %32, label %28

28:                                               ; preds = %13
  %29 = load i8, ptr %4, align 1
  %30 = sext i8 %29 to i32
  %31 = icmp sge i32 %30, 127
  br i1 %31, label %32, label %33

32:                                               ; preds = %28, %13
  store i32 0, ptr %2, align 4
  store i32 1, ptr %5, align 4
  br label %38

33:                                               ; preds = %28
  %34 = load i8, ptr %4, align 1
  %35 = sext i8 %34 to i32
  switch i32 %35, label %37 [
    i32 34, label %36
    i32 60, label %36
    i32 62, label %36
    i32 92, label %36
    i32 94, label %36
    i32 96, label %36
    i32 123, label %36
    i32 124, label %36
    i32 125, label %36
  ]

36:                                               ; preds = %33, %33, %33, %33, %33, %33, %33, %33, %33
  store i32 0, ptr %2, align 4
  store i32 1, ptr %5, align 4
  br label %38

37:                                               ; preds = %33
  store i32 1, ptr %2, align 4
  store i32 1, ptr %5, align 4
  br label %38

38:                                               ; preds = %37, %36, %32, %12
  call void @llvm.lifetime.end.p0(i64 1, ptr %4) #11
  %39 = load i32, ptr %2, align 4
  ret i32 %39
}