; Function Attrs: mustprogress nofree norecurse nosync nounwind willreturn memory(read, inaccessiblemem: none) uwtable
define internal range(i32 0, 2) i32 @p_isurlchar(ptr noundef readonly captures(none) %0) #1 {
  %2 = getelementptr inbounds nuw i8, ptr %0, i64 40
  %3 = load ptr, ptr %2, align 8
  %4 = getelementptr inbounds nuw i8, ptr %3, i64 8
  %5 = load i32, ptr %4, align 8
  %.not = icmp eq i32 %5, 1
  br i1 %.not, label %6, label %15

6:                                                ; preds = %1
  %7 = load ptr, ptr %0, align 8
  %8 = load i32, ptr %3, align 8
  %9 = sext i32 %8 to i64
  %10 = getelementptr inbounds i8, ptr %7, i64 %9
  %11 = load i8, ptr %10, align 1
  %12 = add i8 %11, -127
  %or.cond = icmp ult i8 %12, -94
  br i1 %or.cond, label %15, label %13

13:                                               ; preds = %6
  switch i8 %11, label %14 [
    i8 34, label %15
    i8 60, label %15
    i8 62, label %15
    i8 92, label %15
    i8 94, label %15
    i8 96, label %15
    i8 123, label %15
    i8 124, label %15
    i8 125, label %15
  ]

14:                                               ; preds = %13
  br label %15

15:                                               ; preds = %13, %13, %13, %13, %13, %13, %13, %13, %13, %6, %1, %14
  %.0 = phi i32 [ 1, %14 ], [ 0, %1 ], [ 0, %6 ], [ 0, %13 ], [ 0, %13 ], [ 0, %13 ], [ 0, %13 ], [ 0, %13 ], [ 0, %13 ], [ 0, %13 ], [ 0, %13 ], [ 0, %13 ]
  ret i32 %.0
}